target datalayout = "e-m:e-p270:32:32-p271:32:32-p272:64:64-i64:64-i128:128-f80:128-n8:16:32:64-S128"
target triple = "x86_64-pc-linux-gnu"

%class.btSequentialImpulseConstraintSolverMt = type { %class.btSequentialImpulseConstraintSolver, %struct.btBatchedConstraints, %struct.btBatchedConstraints, i32, i8, i8, [2 x i8], %class.btAlignedObjectArray.10, %class.btAlignedObjectArray.2, %class.btSpinMutex, [64 x i8], %class.btSpinMutex, %class.btAlignedObjectArray.8 }
%class.btSequentialImpulseConstraintSolver = type { %class.btConstraintSolver, %class.btAlignedObjectArray, %class.btAlignedObjectArray.0, %class.btAlignedObjectArray.0, %class.btAlignedObjectArray.0, %class.btAlignedObjectArray.0, %class.btAlignedObjectArray.2, %class.btAlignedObjectArray.2, %class.btAlignedObjectArray.2, %class.btAlignedObjectArray.4, i32, i32, %class.btAlignedObjectArray.2, ptr, ptr, ptr, i32, float, i64, %struct.btSolverAnalyticsData }
%class.btConstraintSolver = type { ptr }
%class.btAlignedObjectArray = type <{ [4 x i8], i32, i32, [4 x i8], ptr, i8, [7 x i8] }>
%class.btAlignedObjectArray.0 = type <{ [4 x i8], i32, i32, [4 x i8], ptr, i8, [7 x i8] }>
%class.btAlignedObjectArray.4 = type <{ [4 x i8], i32, i32, [4 x i8], ptr, i8, [7 x i8] }>
%struct.btSolverAnalyticsData = type { i32, i32, i32, i32, i32, double }
%struct.btBatchedConstraints = type { %class.btAlignedObjectArray.2, %class.btAlignedObjectArray.6, %class.btAlignedObjectArray.6, %class.btAlignedObjectArray.8, %class.btAlignedObjectArray.2, ptr }
%class.btAlignedObjectArray.6 = type <{ [4 x i8], i32, i32, [4 x i8], ptr, i8, [7 x i8] }>
%class.btAlignedObjectArray.10 = type <{ [4 x i8], i32, i32, [4 x i8], ptr, i8, [7 x i8] }>
%class.btAlignedObjectArray.2 = type <{ [4 x i8], i32, i32, [4 x i8], ptr, i8, [7 x i8] }>
%class.btSpinMutex = type { i32 }
%class.btAlignedObjectArray.8 = type <{ [4 x i8], i32, i32, [4 x i8], ptr, i8, [7 x i8] }>
%class.CProfileSample = type { i8 }
%"struct.btBatchedConstraints::Range" = type { i32, i32 }
%class.btIParallelSumBody = type { ptr }
%struct.ContactFrictionSolverLoop = type { %class.btIParallelSumBody, ptr, ptr }

@.str.17 = private unnamed_addr constant [37 x i8] c"resolveAllContactFrictionConstraints\00", align 1
@_ZTV18btIParallelSumBody = linkonce_odr dso_local unnamed_addr constant { [5 x ptr] } { [5 x ptr] [ptr null, ptr @_ZTI18btIParallelSumBody, ptr @_ZN18btIParallelSumBodyD2Ev, ptr @_ZN18btIParallelSumBodyD0Ev, ptr @__cxa_pure_virtual] }, comdat, align 8
@_ZTV25ContactFrictionSolverLoop = linkonce_odr dso_local unnamed_addr constant { [5 x ptr] } { [5 x ptr] [ptr null, ptr @_ZTI25ContactFrictionSolverLoop, ptr @_ZN18btIParallelSumBodyD2Ev, ptr @_ZN25ContactFrictionSolverLoopD0Ev, ptr @_ZNK25ContactFrictionSolverLoop7sumLoopEii] }, comdat, align 8

; Function Attrs: inlinehint mustprogress nounwind uwtable
define linkonce_odr dso_local void @_ZN18btIParallelSumBodyC2Ev(ptr noundef nonnull align 8 dereferenceable(8) %0) unnamed_addr #4 comdat align 2 {
  %2 = alloca ptr, align 8
  store ptr %0, ptr %2, align 8, !tbaa !321
  %3 = load ptr, ptr %2, align 8
  store ptr getelementptr inbounds inrange(-16, 24) ({ [5 x ptr] }, ptr @_ZTV18btIParallelSumBody, i32 0, i32 0, i32 2), ptr %3, align 8, !tbaa !14
  ret void
}

; Function Attrs: mustprogress nounwind uwtable
define linkonce_odr dso_local void @_ZN18btIParallelSumBodyD2Ev(ptr noundef nonnull align 8 dereferenceable(8) %0) unnamed_addr #1 comdat align 2 {
  %2 = alloca ptr, align 8
  store ptr %0, ptr %2, align 8, !tbaa !321
  ret void
}

; Function Attrs: inlinehint mustprogress nounwind uwtable
define linkonce_odr dso_local noundef nonnull align 1 dereferenceable(1) ptr @_ZNK20btAlignedObjectArrayIcEixEi(ptr noundef nonnull align 8 dereferenceable(25) %0, i32 noundef %1) #4 comdat align 2 {
  %3 = alloca ptr, align 8
  %4 = alloca i32, align 4
  store ptr %0, ptr %3, align 8, !tbaa !61
  store i32 %1, ptr %4, align 4, !tbaa !9
  %5 = load ptr, ptr %3, align 8
  %6 = getelementptr inbounds nuw %class.btAlignedObjectArray.8, ptr %5, i32 0, i32 4
  %7 = load ptr, ptr %6, align 8, !tbaa !270
  %8 = load i32, ptr %4, align 4, !tbaa !9
  %9 = sext i32 %8 to i64
  %10 = getelementptr inbounds i8, ptr %7, i64 %9
  ret ptr %10
}

; Function Attrs: inlinehint mustprogress nounwind uwtable
define linkonce_odr dso_local noundef nonnull align 4 dereferenceable(8) ptr @_ZNK20btAlignedObjectArrayIN20btBatchedConstraints5RangeEEixEi(ptr noundef nonnull align 8 dereferenceable(25) %0, i32 noundef %1) #4 comdat align 2 {
  %3 = alloca ptr, align 8
  %4 = alloca i32, align 4
  store ptr %0, ptr %3, align 8, !tbaa !124
  store i32 %1, ptr %4, align 4, !tbaa !9
  %5 = load ptr, ptr %3, align 8
  %6 = getelementptr inbounds nuw %class.btAlignedObjectArray.6, ptr %5, i32 0, i32 4
  %7 = load ptr, ptr %6, align 8, !tbaa !127
  %8 = load i32, ptr %4, align 4, !tbaa !9
  %9 = sext i32 %8 to i64
  %10 = getelementptr inbounds %"struct.btBatchedConstraints::Range", ptr %7, i64 %9
  ret ptr %10
}

; Function Attrs: inlinehint mustprogress nounwind uwtable
define linkonce_odr dso_local noundef nonnull align 4 dereferenceable(4) ptr @_ZNK20btAlignedObjectArrayIiEixEi(ptr noundef nonnull align 8 dereferenceable(25) %0, i32 noundef %1) #4 comdat align 2 {
  %3 = alloca ptr, align 8
  %4 = alloca i32, align 4
  store ptr %0, ptr %3, align 8, !tbaa !56
  store i32 %1, ptr %4, align 4, !tbaa !9
  %5 = load ptr, ptr %3, align 8
  %6 = getelementptr inbounds nuw %class.btAlignedObjectArray.2, ptr %5, i32 0, i32 4
  %7 = load ptr, ptr %6, align 8, !tbaa !106
  %8 = load i32, ptr %4, align 4, !tbaa !9
  %9 = sext i32 %8 to i64
  %10 = getelementptr inbounds i32, ptr %7, i64 %9
  ret ptr %10
}

; Function Attrs: inlinehint mustprogress nounwind uwtable
define linkonce_odr dso_local noundef i32 @_ZNK20btAlignedObjectArrayIN20btBatchedConstraints5RangeEE4sizeEv(ptr noundef nonnull align 8 dereferenceable(25) %0) #4 comdat align 2 {
  %2 = alloca ptr, align 8
  store ptr %0, ptr %2, align 8, !tbaa !124
  %3 = load ptr, ptr %2, align 8
  %4 = getelementptr inbounds nuw %class.btAlignedObjectArray.6, ptr %3, i32 0, i32 1
  %5 = load i32, ptr %4, align 4, !tbaa !126
  ret i32 %5
}

; Function Attrs: mustprogress nounwind uwtable
define linkonce_odr dso_local void @_ZN25ContactFrictionSolverLoopC2EP37btSequentialImpulseConstraintSolverMtPK20btBatchedConstraints(ptr noundef nonnull align 8 dereferenceable(24) %0, ptr noundef %1, ptr noundef %2) unnamed_addr #1 comdat align 2 {
  %4 = alloca ptr, align 8
  %5 = alloca ptr, align 8
  %6 = alloca ptr, align 8
  store ptr %0, ptr %4, align 8, !tbaa !303
  store ptr %1, ptr %5, align 8, !tbaa !12
  store ptr %2, ptr %6, align 8, !tbaa !51
  %7 = load ptr, ptr %4, align 8
  call void @_ZN18btIParallelSumBodyC2Ev(ptr noundef nonnull align 8 dereferenceable(8) %7) #16
  store ptr getelementptr inbounds inrange(-16, 24) ({ [5 x ptr] }, ptr @_ZTV25ContactFrictionSolverLoop, i32 0, i32 0, i32 2), ptr %7, align 8, !tbaa !14
  %8 = load ptr, ptr %5, align 8, !tbaa !12
  %9 = getelementptr inbounds nuw %struct.ContactFrictionSolverLoop, ptr %7, i32 0, i32 1
  store ptr %8, ptr %9, align 8, !tbaa !305
  %10 = load ptr, ptr %6, align 8, !tbaa !51
  %11 = getelementptr inbounds nuw %struct.ContactFrictionSolverLoop, ptr %7, i32 0, i32 2
  store ptr %10, ptr %11, align 8, !tbaa !307
  ret void
}

; Function Attrs: mustprogress uwtable
define dso_local noundef float @_ZN37btSequentialImpulseConstraintSolverMt36resolveAllContactFrictionConstraintsEv(ptr noundef nonnull align 8 dereferenceable(920) %0) unnamed_addr #2 align 2 personality ptr @__gxx_personality_v0 {
  %2 = alloca ptr, align 8
  %3 = alloca %class.CProfileSample, align 1
  %4 = alloca ptr, align 8
  %5 = alloca %struct.ContactFrictionSolverLoop, align 8
  %6 = alloca ptr, align 8
  %7 = alloca i32, align 4
  %8 = alloca float, align 4
  %9 = alloca i32, align 4
  %10 = alloca i32, align 4
  %11 = alloca ptr, align 8
  %12 = alloca i32, align 4
  store ptr %0, ptr %2, align 8, !tbaa !12
  %13 = load ptr, ptr %2, align 8
  call void @llvm.lifetime.start.p0(i64 1, ptr %3) #16
  call void @_ZN14CProfileSampleC1EPKc(ptr noundef nonnull align 1 dereferenceable(1) %3, ptr noundef @.str.17)
  call void @llvm.lifetime.start.p0(i64 8, ptr %4) #16
  %14 = getelementptr inbounds nuw %class.btSequentialImpulseConstraintSolverMt, ptr %13, i32 0, i32 1
  store ptr %14, ptr %4, align 8, !tbaa !51
  call void @llvm.lifetime.start.p0(i64 24, ptr %5) #16
  %15 = load ptr, ptr %4, align 8, !tbaa !51
  invoke void @_ZN25ContactFrictionSolverLoopC2EP37btSequentialImpulseConstraintSolverMtPK20btBatchedConstraints(ptr noundef nonnull align 8 dereferenceable(24) %5, ptr noundef %13, ptr noundef %15)
          to label %16 unwind label %25

16:                                               ; preds = %1
  call void @llvm.lifetime.start.p0(i64 4, ptr %8) #16
  store float 0.000000e+00, ptr %8, align 4, !tbaa !85
  call void @llvm.lifetime.start.p0(i64 4, ptr %9) #16
  store i32 0, ptr %9, align 4, !tbaa !9
  br label %17

17:                                               ; preds = %63, %16
  %18 = load i32, ptr %9, align 4, !tbaa !9
  %19 = load ptr, ptr %4, align 8, !tbaa !51
  %20 = getelementptr inbounds nuw %struct.btBatchedConstraints, ptr %19, i32 0, i32 2
  %21 = invoke noundef i32 @_ZNK20btAlignedObjectArrayIN20btBatchedConstraints5RangeEE4sizeEv(ptr noundef nonnull align 8 dereferenceable(25) %20)
          to label %22 unwind label %29

22:                                               ; preds = %17
  %23 = icmp slt i32 %18, %21
  br i1 %23, label %33, label %24

24:                                               ; preds = %22
  call void @llvm.lifetime.end.p0(i64 4, ptr %9) #16
  br label %81

25:                                               ; preds = %1
  %26 = landingpad { ptr, i32 }
          cleanup
  %27 = extractvalue { ptr, i32 } %26, 0
  store ptr %27, ptr %6, align 8
  %28 = extractvalue { ptr, i32 } %26, 1
  store i32 %28, ptr %7, align 4
  br label %83

29:                                               ; preds = %17
  %30 = landingpad { ptr, i32 }
          cleanup
  %31 = extractvalue { ptr, i32 } %30, 0
  store ptr %31, ptr %6, align 8
  %32 = extractvalue { ptr, i32 } %30, 1
  store i32 %32, ptr %7, align 4
  br label %80

33:                                               ; preds = %22
  call void @llvm.lifetime.start.p0(i64 4, ptr %10) #16
  %34 = load ptr, ptr %4, align 8, !tbaa !51
  %35 = getelementptr inbounds nuw %struct.btBatchedConstraints, ptr %34, i32 0, i32 4
  %36 = load i32, ptr %9, align 4, !tbaa !9
  %37 = invoke noundef nonnull align 4 dereferenceable(4) ptr @_ZNK20btAlignedObjectArrayIiEixEi(ptr noundef nonnull align 8 dereferenceable(25) %35, i32 noundef %36)
          to label %38 unwind label %66

38:                                               ; preds = %33
  %39 = load i32, ptr %37, align 4, !tbaa !9
  store i32 %39, ptr %10, align 4, !tbaa !9
  call void @llvm.lifetime.start.p0(i64 8, ptr %11) #16
  %40 = load ptr, ptr %4, align 8, !tbaa !51
  %41 = getelementptr inbounds nuw %struct.btBatchedConstraints, ptr %40, i32 0, i32 2
  %42 = load i32, ptr %10, align 4, !tbaa !9
  %43 = invoke noundef nonnull align 4 dereferenceable(8) ptr @_ZNK20btAlignedObjectArrayIN20btBatchedConstraints5RangeEEixEi(ptr noundef nonnull align 8 dereferenceable(25) %41, i32 noundef %42)
          to label %44 unwind label %70

44:                                               ; preds = %38
  store ptr %43, ptr %11, align 8, !tbaa !111
  call void @llvm.lifetime.start.p0(i64 4, ptr %12) #16
  %45 = load ptr, ptr %4, align 8, !tbaa !51
  %46 = getelementptr inbounds nuw %struct.btBatchedConstraints, ptr %45, i32 0, i32 3
  %47 = load i32, ptr %10, align 4, !tbaa !9
  %48 = invoke noundef nonnull align 1 dereferenceable(1) ptr @_ZNK20btAlignedObjectArrayIcEixEi(ptr noundef nonnull align 8 dereferenceable(25) %46, i32 noundef %47)
          to label %49 unwind label %74

49:                                               ; preds = %44
  %50 = load i8, ptr %48, align 1, !tbaa !11
  %51 = sext i8 %50 to i32
  store i32 %51, ptr %12, align 4, !tbaa !9
  %52 = load ptr, ptr %11, align 8, !tbaa !111
  %53 = getelementptr inbounds nuw %"struct.btBatchedConstraints::Range", ptr %52, i32 0, i32 0
  %54 = load i32, ptr %53, align 4, !tbaa !112
  %55 = load ptr, ptr %11, align 8, !tbaa !111
  %56 = getelementptr inbounds nuw %"struct.btBatchedConstraints::Range", ptr %55, i32 0, i32 1
  %57 = load i32, ptr %56, align 4, !tbaa !114
  %58 = load i32, ptr %12, align 4, !tbaa !9
  %59 = invoke noundef float @_Z13btParallelSumiiiRK18btIParallelSumBody(i32 noundef %54, i32 noundef %57, i32 noundef %58, ptr noundef nonnull align 8 dereferenceable(8) %5)
          to label %60 unwind label %74

60:                                               ; preds = %49
  %61 = load float, ptr %8, align 4, !tbaa !85
  %62 = fadd float %61, %59
  store float %62, ptr %8, align 4, !tbaa !85
  call void @llvm.lifetime.end.p0(i64 4, ptr %12) #16
  call void @llvm.lifetime.end.p0(i64 8, ptr %11) #16
  call void @llvm.lifetime.end.p0(i64 4, ptr %10) #16
  br label %63

63:                                               ; preds = %60
  %64 = load i32, ptr %9, align 4, !tbaa !9
  %65 = add nsw i32 %64, 1
  store i32 %65, ptr %9, align 4, !tbaa !9
  br label %17, !llvm.loop !302

66:                                               ; preds = %33
  %67 = landingpad { ptr, i32 }
          cleanup
  %68 = extractvalue { ptr, i32 } %67, 0
  store ptr %68, ptr %6, align 8
  %69 = extractvalue { ptr, i32 } %67, 1
  store i32 %69, ptr %7, align 4
  br label %79

70:                                               ; preds = %38
  %71 = landingpad { ptr, i32 }
          cleanup
  %72 = extractvalue { ptr, i32 } %71, 0
  store ptr %72, ptr %6, align 8
  %73 = extractvalue { ptr, i32 } %71, 1
  store i32 %73, ptr %7, align 4
  br label %78

74:                                               ; preds = %49, %44
  %75 = landingpad { ptr, i32 }
          cleanup
  %76 = extractvalue { ptr, i32 } %75, 0
  store ptr %76, ptr %6, align 8
  %77 = extractvalue { ptr, i32 } %75, 1
  store i32 %77, ptr %7, align 4
  call void @llvm.lifetime.end.p0(i64 4, ptr %12) #16
  br label %78

78:                                               ; preds = %74, %70
  call void @llvm.lifetime.end.p0(i64 8, ptr %11) #16
  br label %79

79:                                               ; preds = %78, %66
  call void @llvm.lifetime.end.p0(i64 4, ptr %10) #16
  br label %80

80:                                               ; preds = %79, %29
  call void @llvm.lifetime.end.p0(i64 4, ptr %9) #16
  call void @llvm.lifetime.end.p0(i64 4, ptr %8) #16
  call void @_ZN18btIParallelSumBodyD2Ev(ptr noundef nonnull align 8 dereferenceable(24) %5) #16
  br label %83

81:                                               ; preds = %24
  %82 = load float, ptr %8, align 4, !tbaa !85
  call void @llvm.lifetime.end.p0(i64 4, ptr %8) #16
  call void @_ZN18btIParallelSumBodyD2Ev(ptr noundef nonnull align 8 dereferenceable(24) %5) #16
  call void @llvm.lifetime.end.p0(i64 24, ptr %5) #16
  call void @llvm.lifetime.end.p0(i64 8, ptr %4) #16
  call void @_ZN14CProfileSampleD1Ev(ptr noundef nonnull align 1 dereferenceable(1) %3) #16
  call void @llvm.lifetime.end.p0(i64 1, ptr %3) #16
  ret float %82

83:                                               ; preds = %80, %25
  call void @llvm.lifetime.end.p0(i64 24, ptr %5) #16
  call void @llvm.lifetime.end.p0(i64 8, ptr %4) #16
  call void @_ZN14CProfileSampleD1Ev(ptr noundef nonnull align 1 dereferenceable(1) %3) #16
  call void @llvm.lifetime.end.p0(i64 1, ptr %3) #16
  br label %84

84:                                               ; preds = %83
  %85 = load ptr, ptr %6, align 8
  %86 = load i32, ptr %7, align 4
  %87 = insertvalue { ptr, i32 } poison, ptr %85, 0
  %88 = insertvalue { ptr, i32 } %87, i32 %86, 1
  resume { ptr, i32 } %88
}