; Function Attrs: mustprogress uwtable
define dso_local noundef float @_ZN37btSequentialImpulseConstraintSolverMt36resolveAllContactFrictionConstraintsEv(ptr noundef nonnull align 8 dereferenceable(920) %0) unnamed_addr #0 align 2 personality ptr @__gxx_personality_v0 {
  %2 = alloca %class.CProfileSample, align 1
  %3 = alloca %struct.ContactFrictionSolverLoop, align 8
  call void @llvm.lifetime.start.p0(i64 1, ptr nonnull %2) #16
  call void @_ZN14CProfileSampleC1EPKc(ptr noundef nonnull align 1 dereferenceable(1) %2, ptr noundef nonnull @.str.17)
  %4 = getelementptr inbounds nuw i8, ptr %0, i64 408
  call void @llvm.lifetime.start.p0(i64 24, ptr nonnull %3) #16
  store ptr getelementptr inbounds nuw inrange(-16, 24) (i8, ptr @_ZTV25ContactFrictionSolverLoop, i64 16), ptr %3, align 8, !tbaa !4
  %5 = getelementptr inbounds nuw i8, ptr %3, i64 8
  store ptr %0, ptr %5, align 8, !tbaa !259
  %6 = getelementptr inbounds nuw i8, ptr %3, i64 16
  store ptr %4, ptr %6, align 8, !tbaa !261
  %7 = getelementptr inbounds nuw i8, ptr %0, i64 476
  %8 = load i32, ptr %7, align 4, !tbaa !23
  %9 = icmp sgt i32 %8, 0
  br i1 %9, label %.lr.ph, label %._crit_edge

.lr.ph:                                           ; preds = %1
  %10 = getelementptr inbounds nuw i8, ptr %0, i64 552
  %11 = getelementptr inbounds nuw i8, ptr %0, i64 488
  %12 = getelementptr inbounds nuw i8, ptr %0, i64 520
  br label %13

._crit_edge:                                      ; preds = %28, %1
  %.0.lcssa = phi float [ 0.000000e+00, %1 ], [ %29, %28 ]
  call void @llvm.lifetime.end.p0(i64 24, ptr nonnull %3) #16
  call void @_ZN14CProfileSampleD1Ev(ptr noundef nonnull align 1 dereferenceable(1) %2) #16
  call void @llvm.lifetime.end.p0(i64 1, ptr nonnull %2) #16
  ret float %.0.lcssa

13:                                               ; preds = %.lr.ph, %28
  %indvars.iv = phi i64 [ 0, %.lr.ph ], [ %indvars.iv.next, %28 ]
  %.020 = phi float [ 0.000000e+00, %.lr.ph ], [ %29, %28 ]
  %14 = load ptr, ptr %10, align 8, !tbaa !15
  %15 = getelementptr inbounds nuw i32, ptr %14, i64 %indvars.iv
  %16 = load i32, ptr %15, align 4, !tbaa !67
  %17 = load ptr, ptr %11, align 8, !tbaa !22
  %18 = sext i32 %16 to i64
  %19 = getelementptr inbounds %"struct.btBatchedConstraints::Range", ptr %17, i64 %18
  %20 = load ptr, ptr %12, align 8, !tbaa !29
  %21 = getelementptr inbounds i8, ptr %20, i64 %18
  %22 = load i8, ptr %21, align 1, !tbaa !79
  %23 = sext i8 %22 to i32
  %24 = load i32, ptr %19, align 4, !tbaa !103
  %25 = getelementptr inbounds nuw i8, ptr %19, i64 4
  %26 = load i32, ptr %25, align 4, !tbaa !105
  %27 = invoke noundef float @_Z13btParallelSumiiiRK18btIParallelSumBody(i32 noundef %24, i32 noundef %26, i32 noundef %23, ptr noundef nonnull align 8 dereferenceable(8) %3)
          to label %28 unwind label %33

28:                                               ; preds = %13
  %29 = fadd float %.020, %27
  %indvars.iv.next = add nuw nsw i64 %indvars.iv, 1
  %30 = load i32, ptr %7, align 4, !tbaa !23
  %31 = sext i32 %30 to i64
  %32 = icmp slt i64 %indvars.iv.next, %31
  br i1 %32, label %13, label %._crit_edge, !llvm.loop !262

33:                                               ; preds = %13
  %34 = landingpad { ptr, i32 }
          cleanup
  call void @llvm.lifetime.end.p0(i64 24, ptr nonnull %3) #16
  call void @_ZN14CProfileSampleD1Ev(ptr noundef nonnull align 1 dereferenceable(1) %2) #16
  call void @llvm.lifetime.end.p0(i64 1, ptr nonnull %2) #16
  resume { ptr, i32 } %34
}